(lp0
S'poi'
p1
aS'deferred_income'
p2
aS'email_address'
p3
aS'exercised_stock_options'
p4
aS'expenses'
p5
aS'long_term_incentive'
p6
aS'other'
p7
aS'restricted_stock'
p8
aS'shared_receipt_with_poi'
p9
aS'total_payments'
p10
aS'total_stock_value'
p11
aS'from_poi_to_this_person'
p12
aS'from_this_person_to_poi'
p13
aS'to_messages'
p14
aS'from_messages'
p15
aS'bonus_to_salary'
p16
a.